target datalayout = "e-m:e-p270:32:32-p271:32:32-p272:64:64-i64:64-i128:128-f80:128-n8:16:32:64-S128"
target triple = "x86_64-pc-linux-gnu"

%"class.std::__cxx11::basic_string" = type { %"struct.std::__cxx11::basic_string<char>::_Alloc_hider", i64, %union.anon }
%"struct.std::__cxx11::basic_string<char>::_Alloc_hider" = type { ptr }
%union.anon = type { i64, [8 x i8] }
%"class.std::basic_ostream" = type { ptr, %"class.std::basic_ios" }
%"class.std::basic_ios" = type { %"class.std::ios_base", ptr, i8, i8, ptr, ptr, ptr, ptr }
%"class.std::ios_base" = type { ptr, i64, i64, i32, i32, i32, ptr, %"struct.std::ios_base::_Words", [8 x %"struct.std::ios_base::_Words"], i32, ptr, %"class.std::locale" }
%"struct.std::ios_base::_Words" = type { ptr, i64 }
%"class.std::locale" = type { ptr }
%union.pthread_mutex_t = type { %struct.__pthread_mutex_s }
%struct.__pthread_mutex_s = type { i32, i32, i32, i32, i32, i16, i16, %struct.__pthread_internal_list }
%struct.__pthread_internal_list = type { ptr, ptr }
%"class.Stockfish::(anonymous namespace)::TBFile" = type { %"class.std::basic_ifstream.base", %"class.std::__cxx11::basic_string", %"class.std::basic_ios" }
%"class.std::basic_ifstream.base" = type { %"class.std::basic_istream.base", %"class.std::basic_filebuf" }
%"class.std::basic_istream.base" = type { ptr, i64 }
%"class.std::basic_filebuf" = type { %"class.std::basic_streambuf", %union.pthread_mutex_t, %"class.std::__basic_file", i32, %struct.__mbstate_t, %struct.__mbstate_t, %struct.__mbstate_t, ptr, i64, i8, i8, i8, i8, ptr, ptr, i8, ptr, ptr, i64, ptr, ptr }
%"class.std::basic_streambuf" = type { ptr, ptr, ptr, ptr, ptr, ptr, ptr, %"class.std::locale" }
%"class.std::__basic_file" = type <{ ptr, i8, [7 x i8] }>
%struct.__mbstate_t = type { i32, %union.anon.56 }
%union.anon.56 = type { i32 }
%struct.stat = type { i64, i64, i64, i32, i32, i32, i32, i64, i64, i64, i64, %struct.timespec, %struct.timespec, %struct.timespec, [3 x i64] }
%struct.timespec = type { i64, i64 }

@_ZSt4cerr = external global %"class.std::basic_ostream", align 8
@.str.16 = private unnamed_addr constant [24 x i8] c"Corrupt tablebase file \00", align 1
@.str.17 = private unnamed_addr constant [18 x i8] c"Could not mmap() \00", align 1
@__const._ZN9Stockfish12_GLOBAL__N_16TBFile3mapEPPvPmNS0_6TBTypeE.Magics = private unnamed_addr constant [2 x [4 x i8]] [[4 x i8] c"\D7f\0C\A5", [4 x i8] c"q\E8#]"], align 1
@.str.18 = private unnamed_addr constant [25 x i8] c"Corrupted table in file \00", align 1

; Function Attrs: mustprogress nounwind uwtable
define internal void @_ZN9Stockfish12_GLOBAL__N_16TBFile5unmapEPvm(ptr noundef %0, i64 noundef %1) #4 align 2 {
  %3 = alloca ptr, align 8
  %4 = alloca i64, align 8
  store ptr %0, ptr %3, align 8
  store i64 %1, ptr %4, align 8
  %5 = load ptr, ptr %3, align 8
  %6 = load i64, ptr %4, align 8
  %7 = call i32 @munmap(ptr noundef %5, i64 noundef %6) #3
  ret void
}

; Function Attrs: mustprogress nounwind uwtable
define internal noundef ptr @_ZN9Stockfish12_GLOBAL__N_16TBFile3mapEPPvPmNS0_6TBTypeE(ptr noundef nonnull align 8 dereferenceable(288) %0, ptr noundef %1, ptr noundef %2, i32 noundef %3) #4 align 2 {
  %5 = alloca ptr, align 8
  %6 = alloca ptr, align 8
  %7 = alloca ptr, align 8
  %8 = alloca ptr, align 8
  %9 = alloca i32, align 4
  %10 = alloca %struct.stat, align 8
  %11 = alloca i32, align 4
  %12 = alloca ptr, align 8
  %13 = alloca [2 x [4 x i8]], align 1
  store ptr %0, ptr %6, align 8
  store ptr %1, ptr %7, align 8
  store ptr %2, ptr %8, align 8
  store i32 %3, ptr %9, align 4
  %14 = load ptr, ptr %6, align 8
  %15 = call noundef zeroext i1 @_ZNSt14basic_ifstreamIcSt11char_traitsIcEE7is_openEv(ptr noundef nonnull align 8 dereferenceable(256) %14)
  br i1 %15, label %16, label %17

16:                                               ; preds = %4
  call void @_ZNSt14basic_ifstreamIcSt11char_traitsIcEE5closeEv(ptr noundef nonnull align 8 dereferenceable(256) %14)
  br label %17

17:                                               ; preds = %16, %4
  %18 = getelementptr inbounds %"class.Stockfish::(anonymous namespace)::TBFile", ptr %14, i32 0, i32 1
  %19 = call noundef ptr @_ZNKSt7__cxx1112basic_stringIcSt11char_traitsIcESaIcEE5c_strEv(ptr noundef nonnull align 8 dereferenceable(32) %18) #3
  %20 = call i32 (ptr, i32, ...) @open(ptr noundef %19, i32 noundef 0)
  store i32 %20, ptr %11, align 4
  %21 = load i32, ptr %11, align 4
  %22 = icmp eq i32 %21, -1
  br i1 %22, label %23, label %25

23:                                               ; preds = %17
  %24 = load ptr, ptr %7, align 8
  store ptr null, ptr %24, align 8
  store ptr null, ptr %5, align 8
  br label %85

25:                                               ; preds = %17
  %26 = load i32, ptr %11, align 4
  %27 = call i32 @fstat(i32 noundef %26, ptr noundef %10) #3
  %28 = getelementptr inbounds %struct.stat, ptr %10, i32 0, i32 8
  %29 = load i64, ptr %28, align 8
  %30 = srem i64 %29, 64
  %31 = icmp ne i64 %30, 16
  br i1 %31, label %32, label %37

32:                                               ; preds = %25
  %33 = call noundef nonnull align 8 dereferenceable(8) ptr @_ZStlsISt11char_traitsIcEERSt13basic_ostreamIcT_ES5_PKc(ptr noundef nonnull align 8 dereferenceable(8) @_ZSt4cerr, ptr noundef @.str.16)
  %34 = getelementptr inbounds %"class.Stockfish::(anonymous namespace)::TBFile", ptr %14, i32 0, i32 1
  %35 = call noundef nonnull align 8 dereferenceable(8) ptr @_ZStlsIcSt11char_traitsIcESaIcEERSt13basic_ostreamIT_T0_ES7_RKNSt7__cxx1112basic_stringIS4_S5_T1_EE(ptr noundef nonnull align 8 dereferenceable(8) %33, ptr noundef nonnull align 8 dereferenceable(32) %34)
  %36 = call noundef nonnull align 8 dereferenceable(8) ptr @_ZNSolsEPFRSoS_E(ptr noundef nonnull align 8 dereferenceable(8) %35, ptr noundef @_ZSt4endlIcSt11char_traitsIcEERSt13basic_ostreamIT_T0_ES6_)
  call void @exit(i32 noundef 1) #18
  unreachable

37:                                               ; preds = %25
  %38 = getelementptr inbounds %struct.stat, ptr %10, i32 0, i32 8
  %39 = load i64, ptr %38, align 8
  %40 = load ptr, ptr %8, align 8
  store i64 %39, ptr %40, align 8
  %41 = getelementptr inbounds %struct.stat, ptr %10, i32 0, i32 8
  %42 = load i64, ptr %41, align 8
  %43 = load i32, ptr %11, align 4
  %44 = call ptr @mmap(ptr noundef null, i64 noundef %42, i32 noundef 1, i32 noundef 1, i32 noundef %43, i64 noundef 0) #3
  %45 = load ptr, ptr %7, align 8
  store ptr %44, ptr %45, align 8
  %46 = load ptr, ptr %7, align 8
  %47 = load ptr, ptr %46, align 8
  %48 = getelementptr inbounds %struct.stat, ptr %10, i32 0, i32 8
  %49 = load i64, ptr %48, align 8
  %50 = call i32 @madvise(ptr noundef %47, i64 noundef %49, i32 noundef 1) #3
  %51 = load i32, ptr %11, align 4
  %52 = call i32 @close(i32 noundef %51)
  %53 = load ptr, ptr %7, align 8
  %54 = load ptr, ptr %53, align 8
  %55 = icmp eq ptr %54, inttoptr (i64 -1 to ptr)
  br i1 %55, label %56, label %61

56:                                               ; preds = %37
  %57 = call noundef nonnull align 8 dereferenceable(8) ptr @_ZStlsISt11char_traitsIcEERSt13basic_ostreamIcT_ES5_PKc(ptr noundef nonnull align 8 dereferenceable(8) @_ZSt4cerr, ptr noundef @.str.17)
  %58 = getelementptr inbounds %"class.Stockfish::(anonymous namespace)::TBFile", ptr %14, i32 0, i32 1
  %59 = call noundef nonnull align 8 dereferenceable(8) ptr @_ZStlsIcSt11char_traitsIcESaIcEERSt13basic_ostreamIT_T0_ES7_RKNSt7__cxx1112basic_stringIS4_S5_T1_EE(ptr noundef nonnull align 8 dereferenceable(8) %57, ptr noundef nonnull align 8 dereferenceable(32) %58)
  %60 = call noundef nonnull align 8 dereferenceable(8) ptr @_ZNSolsEPFRSoS_E(ptr noundef nonnull align 8 dereferenceable(8) %59, ptr noundef @_ZSt4endlIcSt11char_traitsIcEERSt13basic_ostreamIT_T0_ES6_)
  call void @exit(i32 noundef 1) #18
  unreachable

61:                                               ; preds = %37
  %62 = load ptr, ptr %7, align 8
  %63 = load ptr, ptr %62, align 8
  store ptr %63, ptr %12, align 8
  call void @llvm.memcpy.p0.p0.i64(ptr align 1 %13, ptr align 1 @__const._ZN9Stockfish12_GLOBAL__N_16TBFile3mapEPPvPmNS0_6TBTypeE.Magics, i64 8, i1 false)
  %64 = load ptr, ptr %12, align 8
  %65 = load i32, ptr %9, align 4
  %66 = icmp eq i32 %65, 0
  %67 = zext i1 %66 to i64
  %68 = getelementptr inbounds [2 x [4 x i8]], ptr %13, i64 0, i64 %67
  %69 = getelementptr inbounds [4 x i8], ptr %68, i64 0, i64 0
  %70 = call i32 @memcmp(ptr noundef %64, ptr noundef %69, i64 noundef 4) #19
  %71 = icmp ne i32 %70, 0
  br i1 %71, label %72, label %82

72:                                               ; preds = %61
  %73 = call noundef nonnull align 8 dereferenceable(8) ptr @_ZStlsISt11char_traitsIcEERSt13basic_ostreamIcT_ES5_PKc(ptr noundef nonnull align 8 dereferenceable(8) @_ZSt4cerr, ptr noundef @.str.18)
  %74 = getelementptr inbounds %"class.Stockfish::(anonymous namespace)::TBFile", ptr %14, i32 0, i32 1
  %75 = call noundef nonnull align 8 dereferenceable(8) ptr @_ZStlsIcSt11char_traitsIcESaIcEERSt13basic_ostreamIT_T0_ES7_RKNSt7__cxx1112basic_stringIS4_S5_T1_EE(ptr noundef nonnull align 8 dereferenceable(8) %73, ptr noundef nonnull align 8 dereferenceable(32) %74)
  %76 = call noundef nonnull align 8 dereferenceable(8) ptr @_ZNSolsEPFRSoS_E(ptr noundef nonnull align 8 dereferenceable(8) %75, ptr noundef @_ZSt4endlIcSt11char_traitsIcEERSt13basic_ostreamIT_T0_ES6_)
  %77 = load ptr, ptr %7, align 8
  %78 = load ptr, ptr %77, align 8
  %79 = load ptr, ptr %8, align 8
  %80 = load i64, ptr %79, align 8
  call void @_ZN9Stockfish12_GLOBAL__N_16TBFile5unmapEPvm(ptr noundef %78, i64 noundef %80)
  %81 = load ptr, ptr %7, align 8
  store ptr null, ptr %81, align 8
  store ptr null, ptr %5, align 8
  br label %85

82:                                               ; preds = %61
  %83 = load ptr, ptr %12, align 8
  %84 = getelementptr inbounds i8, ptr %83, i64 4
  store ptr %84, ptr %5, align 8
  br label %85

85:                                               ; preds = %82, %72, %23
  %86 = load ptr, ptr %5, align 8
  ret ptr %86
}