; Function Attrs: mustprogress nounwind uwtable
define internal fastcc noundef ptr @_ZN9Stockfish12_GLOBAL__N_16TBFile3mapEPPvPmNS0_6TBTypeE(ptr noundef nonnull align 8 dereferenceable(288) %0, ptr nocapture noundef %1, ptr nocapture noundef %2, i32 noundef %3) unnamed_addr #3 align 2 {
  %5 = alloca %struct.stat, align 8
  %6 = tail call noundef zeroext i1 @_ZNSt14basic_ifstreamIcSt11char_traitsIcEE7is_openEv(ptr noundef nonnull align 8 dereferenceable(256) %0) #24
  br i1 %6, label %7, label %8

7:                                                ; preds = %4
  tail call void @_ZNSt14basic_ifstreamIcSt11char_traitsIcEE5closeEv(ptr noundef nonnull align 8 dereferenceable(256) %0) #24
  br label %8

8:                                                ; preds = %7, %4
  %9 = getelementptr inbounds i8, ptr %0, i64 256
  %10 = tail call noundef ptr @_ZNKSt7__cxx1112basic_stringIcSt11char_traitsIcESaIcEE5c_strEv(ptr noundef nonnull align 8 dereferenceable(32) %9) #24
  %11 = tail call i32 (ptr, i32, ...) @open(ptr noundef %10, i32 noundef 0) #24
  %12 = icmp eq i32 %11, -1
  br i1 %12, label %13, label %14

13:                                               ; preds = %8
  store ptr null, ptr %1, align 8
  br label %46

14:                                               ; preds = %8
  %15 = call i32 @fstat(i32 noundef %11, ptr noundef nonnull %5) #24
  %16 = getelementptr inbounds i8, ptr %5, i64 48
  %17 = load i64, ptr %16, align 8
  %18 = and i64 %17, -9223372036854775745
  %.not = icmp eq i64 %18, 16
  br i1 %.not, label %23, label %19

19:                                               ; preds = %14
  %20 = tail call noundef nonnull align 8 dereferenceable(8) ptr @_ZStlsISt11char_traitsIcEERSt13basic_ostreamIcT_ES5_PKc(ptr noundef nonnull align 8 dereferenceable(8) @_ZSt4cerr, ptr noundef nonnull @.str.16) #24
  %21 = tail call noundef nonnull align 8 dereferenceable(8) ptr @_ZStlsIcSt11char_traitsIcESaIcEERSt13basic_ostreamIT_T0_ES7_RKNSt7__cxx1112basic_stringIS4_S5_T1_EE(ptr noundef nonnull align 8 dereferenceable(8) %20, ptr noundef nonnull align 8 dereferenceable(32) %9) #24
  %22 = tail call noundef nonnull align 8 dereferenceable(8) ptr @_ZNSolsEPFRSoS_E(ptr noundef nonnull align 8 dereferenceable(8) %21, ptr noundef nonnull @_ZSt4endlIcSt11char_traitsIcEERSt13basic_ostreamIT_T0_ES6_) #24
  tail call void @exit(i32 noundef 1) #25
  unreachable

23:                                               ; preds = %14
  store i64 %17, ptr %2, align 8
  %24 = tail call ptr @mmap(ptr noundef null, i64 noundef %17, i32 noundef 1, i32 noundef 1, i32 noundef %11, i64 noundef 0) #24
  store ptr %24, ptr %1, align 8
  %25 = tail call i32 @madvise(ptr noundef %24, i64 noundef %17, i32 noundef 1) #24
  %26 = tail call i32 @close(i32 noundef %11) #24
  %27 = load ptr, ptr %1, align 8
  %28 = icmp eq ptr %27, inttoptr (i64 -1 to ptr)
  br i1 %28, label %29, label %33

29:                                               ; preds = %23
  %30 = tail call noundef nonnull align 8 dereferenceable(8) ptr @_ZStlsISt11char_traitsIcEERSt13basic_ostreamIcT_ES5_PKc(ptr noundef nonnull align 8 dereferenceable(8) @_ZSt4cerr, ptr noundef nonnull @.str.17) #24
  %31 = tail call noundef nonnull align 8 dereferenceable(8) ptr @_ZStlsIcSt11char_traitsIcESaIcEERSt13basic_ostreamIT_T0_ES7_RKNSt7__cxx1112basic_stringIS4_S5_T1_EE(ptr noundef nonnull align 8 dereferenceable(8) %30, ptr noundef nonnull align 8 dereferenceable(32) %9) #24
  %32 = tail call noundef nonnull align 8 dereferenceable(8) ptr @_ZNSolsEPFRSoS_E(ptr noundef nonnull align 8 dereferenceable(8) %31, ptr noundef nonnull @_ZSt4endlIcSt11char_traitsIcEERSt13basic_ostreamIT_T0_ES6_) #24
  tail call void @exit(i32 noundef 1) #25
  unreachable

33:                                               ; preds = %23
  %34 = icmp eq i32 %3, 0
  %35 = zext i1 %34 to i64
  %36 = getelementptr inbounds [2 x [4 x i8]], ptr @__const._ZN9Stockfish12_GLOBAL__N_16TBFile3mapEPPvPmNS0_6TBTypeE.Magics, i64 0, i64 %35
  %bcmp = tail call i32 @bcmp(ptr noundef nonnull dereferenceable(4) %27, ptr noundef nonnull dereferenceable(4) %36, i64 4)
  %.not19 = icmp eq i32 %bcmp, 0
  br i1 %.not19, label %44, label %37

37:                                               ; preds = %33
  %38 = tail call noundef nonnull align 8 dereferenceable(8) ptr @_ZStlsISt11char_traitsIcEERSt13basic_ostreamIcT_ES5_PKc(ptr noundef nonnull align 8 dereferenceable(8) @_ZSt4cerr, ptr noundef nonnull @.str.18) #24
  %39 = tail call noundef nonnull align 8 dereferenceable(8) ptr @_ZStlsIcSt11char_traitsIcESaIcEERSt13basic_ostreamIT_T0_ES7_RKNSt7__cxx1112basic_stringIS4_S5_T1_EE(ptr noundef nonnull align 8 dereferenceable(8) %38, ptr noundef nonnull align 8 dereferenceable(32) %9) #24
  %40 = tail call noundef nonnull align 8 dereferenceable(8) ptr @_ZNSolsEPFRSoS_E(ptr noundef nonnull align 8 dereferenceable(8) %39, ptr noundef nonnull @_ZSt4endlIcSt11char_traitsIcEERSt13basic_ostreamIT_T0_ES6_) #24
  %41 = load ptr, ptr %1, align 8
  %42 = load i64, ptr %2, align 8
  %43 = tail call i32 @munmap(ptr noundef %41, i64 noundef %42) #24
  store ptr null, ptr %1, align 8
  br label %46

44:                                               ; preds = %33
  %45 = getelementptr inbounds i8, ptr %27, i64 4
  br label %46

46:                                               ; preds = %44, %37, %13
  %.0 = phi ptr [ null, %13 ], [ null, %37 ], [ %45, %44 ]
  ret ptr %.0
}